(dp0
Vfullscreen_mode
p1
I0
sVorientation
p2
Vhorizontal
p3
sVfocus
p4
(lp5
I94669605670384
aI94669605641648
aI94669605632320
asVsticky
p6
I00
sVurgent
p7
I00
sVlast_split_layout
p8
Vsplith
p9
sVfloating
p10
Vauto_off
p11
sVborder
p12
Vnormal
p13
sVid
p14
I94669605629680
sVcurrent_border_width
p15
I-1
sVlayout
p16
Vsplith
p17
sVpercent
p18
F1.0
sVworkspace_layout
p19
Vdefault
p20
sVwindow
p21
NsVnodes
p22
(lp23
(dp24
Vfullscreen_mode
p25
I0
sVorientation
p26
Vnone
p27
sVfocus
p28
(lp29
I94669605632784
asVsticky
p30
I00
sVurgent
p31
I00
sVlast_split_layout
p32
Vsplith
p33
sVfloating
p34
Vauto_off
p35
sVborder
p36
Vnormal
p37
sVid
p38
I94669605632320
sVcurrent_border_width
p39
I-1
sVlayout
p40
Voutput
p41
sVpercent
p42
F0.3333333333333333
sVworkspace_layout
p43
Vdefault
p44
sVwindow
p45
NsVnodes
p46
(lp47
(dp48
Vfullscreen_mode
p49
I0
sVorientation
p50
Vhorizontal
p51
sVfocus
p52
(lp53
I94669605633280
asVsticky
p54
I00
sVurgent
p55
I00
sVlast_split_layout
p56
Vsplith
p57
sVfloating
p58
Vauto_off
p59
sVborder
p60
Vnormal
p61
sVid
p62
I94669605632784
sVcurrent_border_width
p63
I-1
sVlayout
p64
Vsplith
p65
sVpercent
p66
F1.0
sVworkspace_layout
p67
Vdefault
p68
sVwindow
p69
NsVnodes
p70
(lp71
(dp72
Vfullscreen_mode
p73
I1
sVorientation
p74
Vnone
p75
sVfocus
p76
(lp77
sVsticky
p78
I00
sVurgent
p79
I00
sVnum
p80
I-1
sVlast_split_layout
p81
Vsplith
p82
sVfloating
p83
Vauto_off
p84
sVborder
p85
Vnormal
p86
sVid
p87
I94669605633280
sVcurrent_border_width
p88
I-1
sVlayout
p89
Vsplith
p90
sVpercent
p91
F1.0
sVworkspace_layout
p92
Vdefault
p93
sVwindow
p94
NsVnodes
p95
(lp96
sVtype
p97
Vworkspace
p98
sVdeco_rect
p99
(dp100
Vy
p101
I0
sVx
p102
I0
sVheight
p103
I0
sVwidth
p104
I0
ssVswallows
p105
(lp106
sVfocused
p107
I00
sVscratchpad_state
p108
Vnone
p109
sVrect
p110
(dp111
g101
I0
sg102
I0
sVheight
p112
I0
sVwidth
p113
I0
ssVwindow_rect
p114
(dp115
g101
I0
sg102
I0
sVheight
p116
I0
sVwidth
p117
I0
ssVname
p118
V__i3_scratch
p119
sVgeometry
p120
(dp121
g101
I0
sg102
I0
sVheight
p122
I0
sVwidth
p123
I0
ssVgaps
p124
(dp125
Vouter
p126
I0
sVinner
p127
I0
ssVfloating_nodes
p128
(lp129
sVoutput
p130
V__i3
p131
sasVtype
p132
Vcon
p133
sVdeco_rect
p134
(dp135
g101
I0
sg102
I0
sVheight
p136
I0
sVwidth
p137
I0
ssVswallows
p138
(lp139
sVfocused
p140
I00
sVscratchpad_state
p141
Vnone
p142
sVrect
p143
(dp144
g101
I0
sg102
I0
sVheight
p145
I0
sVwidth
p146
I0
ssVwindow_rect
p147
(dp148
g101
I0
sg102
I0
sVheight
p149
I0
sVwidth
p150
I0
ssVname
p151
Vcontent
p152
sVgeometry
p153
(dp154
g101
I0
sg102
I0
sVheight
p155
I0
sVwidth
p156
I0
ssVfloating_nodes
p157
(lp158
sVoutput
p159
V__i3
p160
sasVtype
p161
Voutput
p162
sVdeco_rect
p163
(dp164
g101
I0
sg102
I0
sVheight
p165
I0
sVwidth
p166
I0
ssVswallows
p167
(lp168
sVfocused
p169
I00
sVscratchpad_state
p170
Vnone
p171
sVrect
p172
(dp173
g101
I0
sg102
I0
sVheight
p174
I1080
sVwidth
p175
I1920
ssVwindow_rect
p176
(dp177
g101
I0
sg102
I0
sVheight
p178
I0
sVwidth
p179
I0
ssVname
p180
V__i3
p181
sVgeometry
p182
(dp183
g101
I0
sg102
I0
sVheight
p184
I0
sVwidth
p185
I0
ssVfloating_nodes
p186
(lp187
sa(dp188
Vfullscreen_mode
p189
I0
sVorientation
p190
Vnone
p191
sVfocus
p192
(lp193
I94669605645536
aI94669605642144
aI94669605664464
asVsticky
p194
I00
sVurgent
p195
I00
sVlast_split_layout
p196
Vsplith
p197
sVfloating
p198
Vauto_off
p199
sVborder
p200
Vnormal
p201
sVid
p202
I94669605641648
sVcurrent_border_width
p203
I-1
sVlayout
p204
Voutput
p205
sVpercent
p206
F0.3333333333333333
sVworkspace_layout
p207
Vdefault
p208
sVwindow
p209
NsVnodes
p210
(lp211
(dp212
Vfullscreen_mode
p213
I0
sVorientation
p214
Vnone
p215
sVfocus
p216
(lp217
sVsticky
p218
I00
sVurgent
p219
I00
sVlast_split_layout
p220
Vsplith
p221
sVfloating
p222
Vauto_off
p223
sVborder
p224
Vnormal
p225
sVid
p226
I94669605642144
sVcurrent_border_width
p227
I-1
sVlayout
p228
Vdockarea
p229
sVpercent
p230
F0.3333333333333333
sVworkspace_layout
p231
Vdefault
p232
sVwindow
p233
NsVnodes
p234
(lp235
sVtype
p236
Vdockarea
p237
sVdeco_rect
p238
(dp239
g101
I0
sg102
I0
sVheight
p240
I0
sVwidth
p241
I0
ssVswallows
p242
(lp243
(dp244
Vdock
p245
I2
sVinsert_where
p246
I2
sasVfocused
p247
I00
sVscratchpad_state
p248
Vnone
p249
sVrect
p250
(dp251
g101
I0
sg102
I1920
sVheight
p252
I0
sVwidth
p253
I1920
ssVwindow_rect
p254
(dp255
g101
I0
sg102
I0
sVheight
p256
I0
sVwidth
p257
I0
ssVname
p258
Vtopdock
p259
sVgeometry
p260
(dp261
g101
I0
sg102
I0
sVheight
p262
I0
sVwidth
p263
I0
ssVfloating_nodes
p264
(lp265
sVoutput
p266
VDVI-D-0
p267
sa(dp268
Vfullscreen_mode
p269
I0
sVorientation
p270
Vhorizontal
p271
sVfocus
p272
(lp273
I94669605646000
asVsticky
p274
I00
sVurgent
p275
I00
sVlast_split_layout
p276
Vsplith
p277
sVfloating
p278
Vauto_off
p279
sVborder
p280
Vnormal
p281
sVid
p282
I94669605645536
sVcurrent_border_width
p283
I-1
sVlayout
p284
Vsplith
p285
sVpercent
p286
F0.3333333333333333
sVworkspace_layout
p287
Vdefault
p288
sVwindow
p289
NsVnodes
p290
(lp291
(dp292
Vfullscreen_mode
p293
I1
sVorientation
p294
Vhorizontal
p295
sVfocus
p296
(lp297
I94669605646496
aI94669605655984
asVsticky
p298
I00
sVurgent
p299
I00
sVnum
p300
I2
sVlast_split_layout
p301
Vsplith
p302
sVfloating
p303
Vauto_off
p304
sVborder
p305
Vnormal
p306
sVid
p307
I94669605646000
sVcurrent_border_width
p308
I-1
sVlayout
p309
Vsplith
p310
sVpercent
p311
F1.0
sVworkspace_layout
p312
Vdefault
p313
sVwindow
p314
NsVnodes
p315
(lp316
(dp317
Vfullscreen_mode
p318
I0
sVorientation
p319
Vhorizontal
p320
sVfocus
p321
(lp322
I94669605646992
asVsticky
p323
I00
sVurgent
p324
I00
sVlast_split_layout
p325
Vsplith
p326
sVfloating
p327
Vauto_off
p328
sVborder
p329
Vnormal
p330
sVid
p331
I94669605646496
sVcurrent_border_width
p332
I-1
sVlayout
p333
Vsplith
p334
sVpercent
p335
F0.5
sVworkspace_layout
p336
Vdefault
p337
sVwindow
p338
NsVnodes
p339
(lp340
(dp341
Vfullscreen_mode
p342
I0
sVorientation
p343
Vhorizontal
p344
sVfocus
p345
(lp346
I94669605647456
asVsticky
p347
I00
sVurgent
p348
I00
sVlast_split_layout
p349
Vsplith
p350
sVfloating
p351
Vauto_off
p352
sVborder
p353
Vnormal
p354
sVid
p355
I94669605646992
sVcurrent_border_width
p356
I-1
sVlayout
p357
Vsplith
p358
sVpercent
p359
F1.0
sVworkspace_layout
p360
Vdefault
p361
sVwindow
p362
NsVnodes
p363
(lp364
(dp365
Vwindow_properties
p366
(dp367
Vinstance
p368
Vatom
p369
sVtransient_for
p370
NsVwindow_role
p371
Vbrowser-window
p372
sVclass
p373
VAtom
p374
sVtitle
p375
Vconfig \u2014 ~/.config/i3 \u2014 Atom
p376
ssVfullscreen_mode
p377
I0
sVorientation
p378
Vnone
p379
sVprocess
p380
S'atom'
p381
sVfocus
p382
(lp383
sVsticky
p384
I00
sVurgent
p385
I00
sVlast_split_layout
p386
Vsplith
p387
sVfloating
p388
Vauto_off
p389
sVborder
p390
Vpixel
p391
sVid
p392
I94669605647456
sVcurrent_border_width
p393
I3
sVlayout
p394
Vsplith
p395
sVpercent
p396
F1.0
sVworkspace_layout
p397
Vdefault
p398
sVwindow
p399
I33554433
sVnodes
p400
(lp401
sVtype
p402
Vcon
p403
sVdeco_rect
p404
(dp405
g101
I0
sg102
I0
sVheight
p406
I0
sVwidth
p407
I0
ssVswallows
p408
(lp409
sVfocused
p410
I00
sVscratchpad_state
p411
Vnone
p412
sVrect
p413
(dp414
g101
I4
sg102
I1924
sVheight
p415
I1052
sVwidth
p416
I954
ssVwindow_rect
p417
(dp418
g101
I3
sg102
I3
sVheight
p419
I1046
sVwidth
p420
I948
ssVname
p421
Vconfig \u2014 ~/.config/i3 \u2014 Atom
p422
sVgeometry
p423
(dp424
g101
I13
sg102
I1933
sVheight
p425
I1034
sVwidth
p426
I939
ssVfloating_nodes
p427
(lp428
sVoutput
p429
VDVI-D-0
p430
sasVtype
p431
Vcon
p432
sVdeco_rect
p433
(dp434
g101
I0
sg102
I0
sVheight
p435
I0
sVwidth
p436
I0
ssVswallows
p437
(lp438
sVfocused
p439
I00
sVscratchpad_state
p440
Vnone
p441
sVrect
p442
(dp443
g101
I0
sg102
I1920
sVheight
p444
I1060
sVwidth
p445
I960
ssVwindow_rect
p446
(dp447
g101
I0
sg102
I0
sVheight
p448
I0
sVwidth
p449
I0
ssVname
p450
NsVgeometry
p451
(dp452
g101
I0
sg102
I0
sVheight
p453
I0
sVwidth
p454
I0
ssVfloating_nodes
p455
(lp456
sVoutput
p457
VDVI-D-0
p458
sasVtype
p459
Vcon
p460
sVdeco_rect
p461
(dp462
g101
I0
sg102
I0
sVheight
p463
I0
sVwidth
p464
I0
ssVswallows
p465
(lp466
sVfocused
p467
I00
sVscratchpad_state
p468
Vnone
p469
sVrect
p470
(dp471
g101
I0
sg102
I1920
sVheight
p472
I1060
sVwidth
p473
I960
ssVwindow_rect
p474
(dp475
g101
I0
sg102
I0
sVheight
p476
I0
sVwidth
p477
I0
ssVname
p478
NsVgeometry
p479
(dp480
g101
I0
sg102
I0
sVheight
p481
I0
sVwidth
p482
I0
ssVfloating_nodes
p483
(lp484
sVoutput
p485
VDVI-D-0
p486
sa(dp487
Vwindow_properties
p488
(dp489
Vinstance
p490
Vgnome-terminal-server
p491
sVtransient_for
p492
NsVwindow_role
p493
Vgnome-terminal-window-5b9e6c01-dee3-4efb-9721-080d12883543
p494
sVclass
p495
VGnome-terminal
p496
sVtitle
p497
Vshirokko@wuotan: ~
p498
ssVfullscreen_mode
p499
I0
sVorientation
p500
Vnone
p501
sg380
S'gnome-terminal'
p502
sVfocus
p503
(lp504
sVsticky
p505
I00
sVurgent
p506
I00
sVlast_split_layout
p507
Vsplith
p508
sVfloating
p509
Vauto_off
p510
sVborder
p511
Vpixel
p512
sVid
p513
I94669605655984
sVcurrent_border_width
p514
I3
sVlayout
p515
Vsplith
p516
sVpercent
p517
F0.5
sVworkspace_layout
p518
Vdefault
p519
sVwindow
p520
I31457286
sVnodes
p521
(lp522
sVtype
p523
Vcon
p524
sVdeco_rect
p525
(dp526
g101
I0
sg102
I0
sVheight
p527
I0
sVwidth
p528
I0
ssVswallows
p529
(lp530
sVfocused
p531
I00
sVscratchpad_state
p532
Vnone
p533
sVrect
p534
(dp535
g101
I4
sg102
I2882
sVheight
p536
I1052
sVwidth
p537
I954
ssVwindow_rect
p538
(dp539
g101
I3
sg102
I3
sVheight
p540
I1046
sVwidth
p541
I948
ssVname
p542
Vshirokko@wuotan: ~
p543
sVgeometry
p544
(dp545
g101
I0
sg102
I0
sVheight
p546
I362
sVwidth
p547
I654
ssVfloating_nodes
p548
(lp549
sVoutput
p550
VDVI-D-0
p551
sasVtype
p552
Vworkspace
p553
sVdeco_rect
p554
(dp555
g101
I0
sg102
I0
sVheight
p556
I0
sVwidth
p557
I0
ssVswallows
p558
(lp559
sVfocused
p560
I00
sVscratchpad_state
p561
Vnone
p562
sVrect
p563
(dp564
g101
I0
sg102
I1920
sVheight
p565
I1060
sVwidth
p566
I1920
ssVwindow_rect
p567
(dp568
g101
I0
sg102
I0
sVheight
p569
I0
sVwidth
p570
I0
ssVname
p571
V2
p572
sVgeometry
p573
(dp574
g101
I0
sg102
I0
sVheight
p575
I0
sVwidth
p576
I0
ssVgaps
p577
(dp578
Vouter
p579
I0
sVinner
p580
I0
ssVfloating_nodes
p581
(lp582
sVoutput
p583
VDVI-D-0
p584
sasVtype
p585
Vcon
p586
sVdeco_rect
p587
(dp588
g101
I0
sg102
I0
sVheight
p589
I0
sVwidth
p590
I0
ssVswallows
p591
(lp592
sVfocused
p593
I00
sVscratchpad_state
p594
Vnone
p595
sVrect
p596
(dp597
g101
I0
sg102
I1920
sVheight
p598
I1060
sVwidth
p599
I1920
ssVwindow_rect
p600
(dp601
g101
I0
sg102
I0
sVheight
p602
I0
sVwidth
p603
I0
ssVname
p604
Vcontent
p605
sVgeometry
p606
(dp607
g101
I0
sg102
I0
sVheight
p608
I0
sVwidth
p609
I0
ssVfloating_nodes
p610
(lp611
sVoutput
p612
VDVI-D-0
p613
sa(dp614
Vfullscreen_mode
p615
I0
sVorientation
p616
Vnone
p617
sVfocus
p618
(lp619
I94669606076832
asVsticky
p620
I00
sVurgent
p621
I00
sVlast_split_layout
p622
Vsplith
p623
sVfloating
p624
Vauto_off
p625
sVborder
p626
Vnormal
p627
sVid
p628
I94669605664464
sVcurrent_border_width
p629
I-1
sVlayout
p630
Vdockarea
p631
sVpercent
p632
F0.3333333333333333
sVworkspace_layout
p633
Vdefault
p634
sVwindow
p635
NsVnodes
p636
(lp637
(dp638
Vwindow_properties
p639
(dp640
Vinstance
p641
Vi3bar
p642
sVtransient_for
p643
NsVclass
p644
Vi3bar
p645
sVtitle
p646
Vi3bar for output DVI-D-0
p647
ssVfullscreen_mode
p648
I0
sVorientation
p649
Vnone
p650
sg380
S'i3bar'
p651
sVfocus
p652
(lp653
sVsticky
p654
I00
sVurgent
p655
I00
sVlast_split_layout
p656
Vsplith
p657
sVfloating
p658
Vauto_off
p659
sVborder
p660
Vnormal
p661
sVid
p662
I94669606076832
sVcurrent_border_width
p663
I2
sVlayout
p664
Vsplith
p665
sVpercent
p666
F1.0
sVworkspace_layout
p667
Vdefault
p668
sVwindow
p669
I37748742
sVnodes
p670
(lp671
sVtype
p672
Vcon
p673
sVdeco_rect
p674
(dp675
g101
I0
sg102
I0
sVheight
p676
I0
sVwidth
p677
I0
ssVswallows
p678
(lp679
sVfocused
p680
I00
sVscratchpad_state
p681
Vnone
p682
sVrect
p683
(dp684
g101
I1060
sg102
I1920
sVheight
p685
I20
sVwidth
p686
I1920
ssVwindow_rect
p687
(dp688
g101
I0
sg102
I0
sVheight
p689
I20
sVwidth
p690
I1920
ssVname
p691
Vi3bar for output DVI-D-0
p692
sVgeometry
p693
(dp694
g101
I1060
sg102
I1920
sVheight
p695
I20
sVwidth
p696
I1920
ssVfloating_nodes
p697
(lp698
sVoutput
p699
VDVI-D-0
p700
sasVtype
p701
Vdockarea
p702
sVdeco_rect
p703
(dp704
g101
I0
sg102
I0
sVheight
p705
I0
sVwidth
p706
I0
ssVswallows
p707
(lp708
(dp709
Vdock
p710
I3
sVinsert_where
p711
I2
sasVfocused
p712
I00
sVscratchpad_state
p713
Vnone
p714
sVrect
p715
(dp716
g101
I1060
sg102
I1920
sVheight
p717
I20
sVwidth
p718
I1920
ssVwindow_rect
p719
(dp720
g101
I0
sg102
I0
sVheight
p721
I0
sVwidth
p722
I0
ssVname
p723
Vbottomdock
p724
sVgeometry
p725
(dp726
g101
I0
sg102
I0
sVheight
p727
I0
sVwidth
p728
I0
ssVfloating_nodes
p729
(lp730
sVoutput
p731
VDVI-D-0
p732
sasVtype
p733
Voutput
p734
sVdeco_rect
p735
(dp736
g101
I0
sg102
I0
sVheight
p737
I0
sVwidth
p738
I0
ssVswallows
p739
(lp740
sVfocused
p741
I00
sVscratchpad_state
p742
Vnone
p743
sVrect
p744
(dp745
g101
I0
sg102
I1920
sVheight
p746
I1080
sVwidth
p747
I1920
ssVwindow_rect
p748
(dp749
g101
I0
sg102
I0
sVheight
p750
I0
sVwidth
p751
I0
ssVname
p752
VDVI-D-0
p753
sVgeometry
p754
(dp755
g101
I0
sg102
I0
sVheight
p756
I0
sVwidth
p757
I0
ssVfloating_nodes
p758
(lp759
sa(dp760
Vfullscreen_mode
p761
I0
sVorientation
p762
Vnone
p763
sVfocus
p764
(lp765
I94669605674144
aI94669605670848
aI94669605690240
asVsticky
p766
I00
sVurgent
p767
I00
sVlast_split_layout
p768
Vsplith
p769
sVfloating
p770
Vauto_off
p771
sVborder
p772
Vnormal
p773
sVid
p774
I94669605670384
sVcurrent_border_width
p775
I-1
sVlayout
p776
Voutput
p777
sVpercent
p778
F0.3333333333333333
sVworkspace_layout
p779
Vdefault
p780
sVwindow
p781
NsVnodes
p782
(lp783
(dp784
Vfullscreen_mode
p785
I0
sVorientation
p786
Vnone
p787
sVfocus
p788
(lp789
sVsticky
p790
I00
sVurgent
p791
I00
sVlast_split_layout
p792
Vsplith
p793
sVfloating
p794
Vauto_off
p795
sVborder
p796
Vnormal
p797
sVid
p798
I94669605670848
sVcurrent_border_width
p799
I-1
sVlayout
p800
Vdockarea
p801
sVpercent
p802
F0.3333333333333333
sVworkspace_layout
p803
Vdefault
p804
sVwindow
p805
NsVnodes
p806
(lp807
sVtype
p808
Vdockarea
p809
sVdeco_rect
p810
(dp811
g101
I0
sg102
I0
sVheight
p812
I0
sVwidth
p813
I0
ssVswallows
p814
(lp815
(dp816
Vdock
p817
I2
sVinsert_where
p818
I2
sasVfocused
p819
I00
sVscratchpad_state
p820
Vnone
p821
sVrect
p822
(dp823
g101
I0
sg102
I0
sVheight
p824
I0
sVwidth
p825
I1920
ssVwindow_rect
p826
(dp827
g101
I0
sg102
I0
sVheight
p828
I0
sVwidth
p829
I0
ssVname
p830
Vtopdock
p831
sVgeometry
p832
(dp833
g101
I0
sg102
I0
sVheight
p834
I0
sVwidth
p835
I0
ssVfloating_nodes
p836
(lp837
sVoutput
p838
VHDMI-A-1
p839
sa(dp840
Vfullscreen_mode
p841
I0
sVorientation
p842
Vhorizontal
p843
sVfocus
p844
(lp845
I94669605674608
asVsticky
p846
I00
sVurgent
p847
I00
sVlast_split_layout
p848
Vsplith
p849
sVfloating
p850
Vauto_off
p851
sVborder
p852
Vnormal
p853
sVid
p854
I94669605674144
sVcurrent_border_width
p855
I-1
sVlayout
p856
Vsplith
p857
sVpercent
p858
F0.3333333333333333
sVworkspace_layout
p859
Vdefault
p860
sVwindow
p861
NsVnodes
p862
(lp863
(dp864
Vfullscreen_mode
p865
I1
sVorientation
p866
Vhorizontal
p867
sVfocus
p868
(lp869
I94669605678400
aI94669605675104
asVsticky
p870
I00
sVurgent
p871
I00
sVnum
p872
I1
sVlast_split_layout
p873
Vsplith
p874
sVfloating
p875
Vauto_off
p876
sVborder
p877
Vnormal
p878
sVid
p879
I94669605674608
sVcurrent_border_width
p880
I-1
sVlayout
p881
Vsplith
p882
sVpercent
p883
F1.0
sVworkspace_layout
p884
Vdefault
p885
sVwindow
p886
NsVnodes
p887
(lp888
(dp889
Vwindow_properties
p890
(dp891
Vinstance
p892
Vgoogle-chrome
p893
sVtransient_for
p894
NsVwindow_role
p895
Vbrowser
p896
sVclass
p897
VGoogle-chrome
p898
sVtitle
p899
VNew Tab - Google Chrome
p900
ssVfullscreen_mode
p901
I0
sVorientation
p902
Vnone
p903
sg380
S'google-chrome'
p904
sVfocus
p905
(lp906
sVsticky
p907
I00
sVurgent
p908
I00
sVlast_split_layout
p909
Vsplith
p910
sVfloating
p911
Vauto_off
p912
sVborder
p913
Vpixel
p914
sVid
p915
I94669605675104
sVcurrent_border_width
p916
I3
sVlayout
p917
Vsplith
p918
sVpercent
p919
F0.5
sVworkspace_layout
p920
Vdefault
p921
sVwindow
p922
I23068673
sVnodes
p923
(lp924
sVtype
p925
Vcon
p926
sVdeco_rect
p927
(dp928
g101
I0
sg102
I0
sVheight
p929
I0
sVwidth
p930
I0
ssVswallows
p931
(lp932
sVfocused
p933
I00
sVscratchpad_state
p934
Vnone
p935
sVrect
p936
(dp937
g101
I4
sg102
I4
sVheight
p938
I1052
sVwidth
p939
I954
ssVwindow_rect
p940
(dp941
g101
I3
sg102
I3
sVheight
p942
I1046
sVwidth
p943
I948
ssVname
p944
VNew Tab - Google Chrome
p945
sVgeometry
p946
(dp947
g101
I13
sg102
I13
sVheight
p948
I933
sVwidth
p949
I939
ssVfloating_nodes
p950
(lp951
sVoutput
p952
VHDMI-A-1
p953
sa(dp954
Vwindow_properties
p955
(dp956
Vinstance
p957
Vgoogle-chrome
p958
sVtransient_for
p959
NsVwindow_role
p960
Vbrowser
p961
sVclass
p962
VGoogle-chrome
p963
sVtitle
p964
VScrot selection using bindkeys - i3 FAQ - Google Chrome
p965
ssVfullscreen_mode
p966
I0
sVorientation
p967
Vnone
p968
sg380
S'google-chrome'
p969
sVfocus
p970
(lp971
sVsticky
p972
I00
sVurgent
p973
I00
sVlast_split_layout
p974
Vsplith
p975
sVfloating
p976
Vauto_off
p977
sVborder
p978
Vpixel
p979
sVid
p980
I94669605678400
sVcurrent_border_width
p981
I3
sVlayout
p982
Vsplith
p983
sVpercent
p984
F0.5
sVworkspace_layout
p985
Vdefault
p986
sVwindow
p987
I23068678
sVnodes
p988
(lp989
sVtype
p990
Vcon
p991
sVdeco_rect
p992
(dp993
g101
I0
sg102
I0
sVheight
p994
I0
sVwidth
p995
I0
ssVswallows
p996
(lp997
sVfocused
p998
I01
sVscratchpad_state
p999
Vnone
p1000
sVrect
p1001
(dp1002
g101
I4
sg102
I962
sVheight
p1003
I1052
sVwidth
p1004
I954
ssVwindow_rect
p1005
(dp1006
g101
I3
sg102
I3
sVheight
p1007
I1046
sVwidth
p1008
I948
ssVname
p1009
VScrot selection using bindkeys - i3 FAQ - Google Chrome
p1010
sVgeometry
p1011
(dp1012
g101
I13
sg102
I968
sVheight
p1013
I1034
sVwidth
p1014
I939
ssVfloating_nodes
p1015
(lp1016
sVoutput
p1017
VHDMI-A-1
p1018
sasVtype
p1019
Vworkspace
p1020
sVdeco_rect
p1021
(dp1022
g101
I0
sg102
I0
sVheight
p1023
I0
sVwidth
p1024
I0
ssVswallows
p1025
(lp1026
sVfocused
p1027
I00
sVscratchpad_state
p1028
Vnone
p1029
sVrect
p1030
(dp1031
g101
I0
sg102
I0
sVheight
p1032
I1060
sVwidth
p1033
I1920
ssVwindow_rect
p1034
(dp1035
g101
I0
sg102
I0
sVheight
p1036
I0
sVwidth
p1037
I0
ssVname
p1038
V1
p1039
sVgeometry
p1040
(dp1041
g101
I0
sg102
I0
sVheight
p1042
I0
sVwidth
p1043
I0
ssVgaps
p1044
(dp1045
Vouter
p1046
I0
sVinner
p1047
I0
ssVfloating_nodes
p1048
(lp1049
sVoutput
p1050
VHDMI-A-1
p1051
sasVtype
p1052
Vcon
p1053
sVdeco_rect
p1054
(dp1055
g101
I0
sg102
I0
sVheight
p1056
I0
sVwidth
p1057
I0
ssVswallows
p1058
(lp1059
sVfocused
p1060
I00
sVscratchpad_state
p1061
Vnone
p1062
sVrect
p1063
(dp1064
g101
I0
sg102
I0
sVheight
p1065
I1060
sVwidth
p1066
I1920
ssVwindow_rect
p1067
(dp1068
g101
I0
sg102
I0
sVheight
p1069
I0
sVwidth
p1070
I0
ssVname
p1071
Vcontent
p1072
sVgeometry
p1073
(dp1074
g101
I0
sg102
I0
sVheight
p1075
I0
sVwidth
p1076
I0
ssVfloating_nodes
p1077
(lp1078
sVoutput
p1079
VHDMI-A-1
p1080
sa(dp1081
Vfullscreen_mode
p1082
I0
sVorientation
p1083
Vnone
p1084
sVfocus
p1085
(lp1086
I94669606080640
asVsticky
p1087
I00
sVurgent
p1088
I00
sVlast_split_layout
p1089
Vsplith
p1090
sVfloating
p1091
Vauto_off
p1092
sVborder
p1093
Vnormal
p1094
sVid
p1095
I94669605690240
sVcurrent_border_width
p1096
I-1
sVlayout
p1097
Vdockarea
p1098
sVpercent
p1099
F0.3333333333333333
sVworkspace_layout
p1100
Vdefault
p1101
sVwindow
p1102
NsVnodes
p1103
(lp1104
(dp1105
Vwindow_properties
p1106
(dp1107
Vinstance
p1108
Vi3bar
p1109
sVtransient_for
p1110
NsVclass
p1111
Vi3bar
p1112
sVtitle
p1113
Vi3bar for output HDMI-A-1
p1114
ssVfullscreen_mode
p1115
I0
sVorientation
p1116
Vnone
p1117
sg380
S'i3bar'
p1118
sVfocus
p1119
(lp1120
sVsticky
p1121
I00
sVurgent
p1122
I00
sVlast_split_layout
p1123
Vsplith
p1124
sVfloating
p1125
Vauto_off
p1126
sVborder
p1127
Vnormal
p1128
sVid
p1129
I94669606080640
sVcurrent_border_width
p1130
I2
sVlayout
p1131
Vsplith
p1132
sVpercent
p1133
F1.0
sVworkspace_layout
p1134
Vdefault
p1135
sVwindow
p1136
I37748749
sVnodes
p1137
(lp1138
sVtype
p1139
Vcon
p1140
sVdeco_rect
p1141
(dp1142
g101
I0
sg102
I0
sVheight
p1143
I0
sVwidth
p1144
I0
ssVswallows
p1145
(lp1146
sVfocused
p1147
I00
sVscratchpad_state
p1148
Vnone
p1149
sVrect
p1150
(dp1151
g101
I1060
sg102
I0
sVheight
p1152
I20
sVwidth
p1153
I1920
ssVwindow_rect
p1154
(dp1155
g101
I0
sg102
I0
sVheight
p1156
I20
sVwidth
p1157
I1920
ssVname
p1158
Vi3bar for output HDMI-A-1
p1159
sVgeometry
p1160
(dp1161
g101
I1060
sg102
I0
sVheight
p1162
I20
sVwidth
p1163
I1920
ssVfloating_nodes
p1164
(lp1165
sVoutput
p1166
VHDMI-A-1
p1167
sasVtype
p1168
Vdockarea
p1169
sVdeco_rect
p1170
(dp1171
g101
I0
sg102
I0
sVheight
p1172
I0
sVwidth
p1173
I0
ssVswallows
p1174
(lp1175
(dp1176
Vdock
p1177
I3
sVinsert_where
p1178
I2
sasVfocused
p1179
I00
sVscratchpad_state
p1180
Vnone
p1181
sVrect
p1182
(dp1183
g101
I1060
sg102
I0
sVheight
p1184
I20
sVwidth
p1185
I1920
ssVwindow_rect
p1186
(dp1187
g101
I0
sg102
I0
sVheight
p1188
I0
sVwidth
p1189
I0
ssVname
p1190
Vbottomdock
p1191
sVgeometry
p1192
(dp1193
g101
I0
sg102
I0
sVheight
p1194
I0
sVwidth
p1195
I0
ssVfloating_nodes
p1196
(lp1197
sVoutput
p1198
VHDMI-A-1
p1199
sasVtype
p1200
Voutput
p1201
sVdeco_rect
p1202
(dp1203
g101
I0
sg102
I0
sVheight
p1204
I0
sVwidth
p1205
I0
ssVswallows
p1206
(lp1207
sVfocused
p1208
I00
sVscratchpad_state
p1209
Vnone
p1210
sVrect
p1211
(dp1212
g101
I0
sg102
I0
sVheight
p1213
I1080
sVwidth
p1214
I1920
ssVwindow_rect
p1215
(dp1216
g101
I0
sg102
I0
sVheight
p1217
I0
sVwidth
p1218
I0
ssVname
p1219
VHDMI-A-1
p1220
sVgeometry
p1221
(dp1222
g101
I0
sg102
I0
sVheight
p1223
I0
sVwidth
p1224
I0
ssVfloating_nodes
p1225
(lp1226
sasVtype
p1227
Vroot
p1228
sVdeco_rect
p1229
(dp1230
g101
I0
sg102
I0
sVheight
p1231
I0
sVwidth
p1232
I0
ssVswallows
p1233
(lp1234
sVfocused
p1235
I00
sVscratchpad_state
p1236
Vnone
p1237
sVrect
p1238
(dp1239
g101
I0
sg102
I0
sVheight
p1240
I1080
sVwidth
p1241
I3840
ssVwindow_rect
p1242
(dp1243
g101
I0
sg102
I0
sVheight
p1244
I0
sVwidth
p1245
I0
ssVname
p1246
Vroot
p1247
sVgeometry
p1248
(dp1249
g101
I0
sg102
I0
sVheight
p1250
I0
sVwidth
p1251
I0
ssVfloating_nodes
p1252
(lp1253
s.